target datalayout = "e-m:e-p270:32:32-p271:32:32-p272:64:64-i64:64-i128:128-f80:128-n8:16:32:64-S128"
target triple = "x86_64-pc-linux-gnu"

%class.Jipopt = type { %"class.Ipopt::TNLP.base", ptr, ptr, i32, i32, i32, i32, i32, ptr, ptr, ptr, ptr, ptr, ptr, ptr, ptr, ptr, i8, i8, %"class.Ipopt::SmartPtr", ptr, ptr, ptr, ptr, ptr, ptr, ptr, ptr, ptr, ptr, ptr }
%"class.Ipopt::TNLP.base" = type { %"class.Ipopt::ReferencedObject.base" }
%"class.Ipopt::ReferencedObject.base" = type <{ ptr, i32 }>
%"class.Ipopt::SmartPtr" = type { ptr }
%struct.JNIEnv_ = type { ptr }
%struct.JNINativeInterface_ = type { ptr, ptr, ptr, ptr, ptr, ptr, ptr, ptr, ptr, ptr, ptr, ptr, ptr, ptr, ptr, ptr, ptr, ptr, ptr, ptr, ptr, ptr, ptr, ptr, ptr, ptr, ptr, ptr, ptr, ptr, ptr, ptr, ptr, ptr, ptr, ptr, ptr, ptr, ptr, ptr, ptr, ptr, ptr, ptr, ptr, ptr, ptr, ptr, ptr, ptr, ptr, ptr, ptr, ptr, ptr, ptr, ptr, ptr, ptr, ptr, ptr, ptr, ptr, ptr, ptr, ptr, ptr, ptr, ptr, ptr, ptr, ptr, ptr, ptr, ptr, ptr, ptr, ptr, ptr, ptr, ptr, ptr, ptr, ptr, ptr, ptr, ptr, ptr, ptr, ptr, ptr, ptr, ptr, ptr, ptr, ptr, ptr, ptr, ptr, ptr, ptr, ptr, ptr, ptr, ptr, ptr, ptr, ptr, ptr, ptr, ptr, ptr, ptr, ptr, ptr, ptr, ptr, ptr, ptr, ptr, ptr, ptr, ptr, ptr, ptr, ptr, ptr, ptr, ptr, ptr, ptr, ptr, ptr, ptr, ptr, ptr, ptr, ptr, ptr, ptr, ptr, ptr, ptr, ptr, ptr, ptr, ptr, ptr, ptr, ptr, ptr, ptr, ptr, ptr, ptr, ptr, ptr, ptr, ptr, ptr, ptr, ptr, ptr, ptr, ptr, ptr, ptr, ptr, ptr, ptr, ptr, ptr, ptr, ptr, ptr, ptr, ptr, ptr, ptr, ptr, ptr, ptr, ptr, ptr, ptr, ptr, ptr, ptr, ptr, ptr, ptr, ptr, ptr, ptr, ptr, ptr, ptr, ptr, ptr, ptr, ptr, ptr, ptr, ptr, ptr, ptr, ptr, ptr, ptr, ptr, ptr, ptr, ptr, ptr, ptr, ptr, ptr, ptr, ptr, ptr, ptr, ptr, ptr, ptr, ptr, ptr, ptr, ptr, ptr, ptr, ptr, ptr, ptr, ptr }

; Function Attrs: mustprogress uwtable
define linkonce_odr void @_ZN7JNIEnv_20GetDoubleArrayRegionEP13_jdoubleArrayiiPd(ptr noundef nonnull align 8 dereferenceable(8) %0, ptr noundef %1, i32 noundef %2, i32 noundef %3, ptr noundef %4) #4 comdat align 2 {
  %6 = alloca ptr, align 8
  %7 = alloca ptr, align 8
  %8 = alloca i32, align 4
  %9 = alloca i32, align 4
  %10 = alloca ptr, align 8
  store ptr %0, ptr %6, align 8, !tbaa !8
  store ptr %1, ptr %7, align 8, !tbaa !101
  store i32 %2, ptr %8, align 4, !tbaa !12
  store i32 %3, ptr %9, align 4, !tbaa !12
  store ptr %4, ptr %10, align 8, !tbaa !99
  %11 = load ptr, ptr %6, align 8
  %12 = getelementptr inbounds nuw %struct.JNIEnv_, ptr %11, i32 0, i32 0
  %13 = load ptr, ptr %12, align 8, !tbaa !84
  %14 = getelementptr inbounds nuw %struct.JNINativeInterface_, ptr %13, i32 0, i32 206
  %15 = load ptr, ptr %14, align 8, !tbaa !106
  %16 = load ptr, ptr %7, align 8, !tbaa !101
  %17 = load i32, ptr %8, align 4, !tbaa !12
  %18 = load i32, ptr %9, align 4, !tbaa !12
  %19 = load ptr, ptr %10, align 8, !tbaa !99
  call void %15(ptr noundef %11, ptr noundef %16, i32 noundef %17, i32 noundef %18, ptr noundef %19)
  ret void
}

; Function Attrs: mustprogress uwtable
define linkonce_odr void @_ZN7JNIEnv_20SetDoubleArrayRegionEP13_jdoubleArrayiiPKd(ptr noundef nonnull align 8 dereferenceable(8) %0, ptr noundef %1, i32 noundef %2, i32 noundef %3, ptr noundef %4) #4 comdat align 2 {
  %6 = alloca ptr, align 8
  %7 = alloca ptr, align 8
  %8 = alloca i32, align 4
  %9 = alloca i32, align 4
  %10 = alloca ptr, align 8
  store ptr %0, ptr %6, align 8, !tbaa !8
  store ptr %1, ptr %7, align 8, !tbaa !101
  store i32 %2, ptr %8, align 4, !tbaa !12
  store i32 %3, ptr %9, align 4, !tbaa !12
  store ptr %4, ptr %10, align 8, !tbaa !99
  %11 = load ptr, ptr %6, align 8
  %12 = getelementptr inbounds nuw %struct.JNIEnv_, ptr %11, i32 0, i32 0
  %13 = load ptr, ptr %12, align 8, !tbaa !84
  %14 = getelementptr inbounds nuw %struct.JNINativeInterface_, ptr %13, i32 0, i32 214
  %15 = load ptr, ptr %14, align 8, !tbaa !107
  %16 = load ptr, ptr %7, align 8, !tbaa !101
  %17 = load i32, ptr %8, align 4, !tbaa !12
  %18 = load i32, ptr %9, align 4, !tbaa !12
  %19 = load ptr, ptr %10, align 8, !tbaa !99
  call void %15(ptr noundef %11, ptr noundef %16, i32 noundef %17, i32 noundef %18, ptr noundef %19)
  ret void
}

; Function Attrs: mustprogress uwtable
define noundef zeroext i1 @_ZN6Jipopt6eval_fEiPKdbRd(ptr noundef nonnull align 8 dereferenceable(232) %0, i32 noundef %1, ptr noundef %2, i1 noundef zeroext %3, ptr noundef nonnull align 8 dereferenceable(8) %4) unnamed_addr #4 align 2 {
  %6 = alloca i1, align 1
  %7 = alloca ptr, align 8
  %8 = alloca i32, align 4
  %9 = alloca ptr, align 8
  %10 = alloca i8, align 1
  %11 = alloca ptr, align 8
  %12 = alloca i8, align 1
  %13 = alloca i32, align 4
  store ptr %0, ptr %7, align 8, !tbaa !3
  store i32 %1, ptr %8, align 4, !tbaa !12
  store ptr %2, ptr %9, align 8, !tbaa !99
  %14 = zext i1 %3 to i8
  store i8 %14, ptr %10, align 1, !tbaa !60
  store ptr %4, ptr %11, align 8, !tbaa !99
  %15 = load ptr, ptr %7, align 8
  %16 = load i8, ptr %10, align 1, !tbaa !60, !range !82, !noundef !83
  %17 = trunc i8 %16 to i1
  br i1 %17, label %18, label %25

18:                                               ; preds = %5
  %19 = getelementptr inbounds nuw %class.Jipopt, ptr %15, i32 0, i32 1
  %20 = load ptr, ptr %19, align 8, !tbaa !16
  %21 = getelementptr inbounds nuw %class.Jipopt, ptr %15, i32 0, i32 11
  %22 = load ptr, ptr %21, align 8, !tbaa !33
  %23 = load i32, ptr %8, align 4, !tbaa !12
  %24 = load ptr, ptr %9, align 8, !tbaa !99
  call void @_ZN7JNIEnv_20SetDoubleArrayRegionEP13_jdoubleArrayiiPKd(ptr noundef nonnull align 8 dereferenceable(8) %20, ptr noundef %22, i32 noundef 0, i32 noundef %23, ptr noundef %24)
  br label %25

25:                                               ; preds = %18, %5
  call void @llvm.lifetime.start.p0(i64 1, ptr %12) #3
  %26 = load i8, ptr %10, align 1, !tbaa !60, !range !82, !noundef !83
  %27 = trunc i8 %26 to i1
  %28 = zext i1 %27 to i8
  store i8 %28, ptr %12, align 1, !tbaa !105
  %29 = getelementptr inbounds nuw %class.Jipopt, ptr %15, i32 0, i32 1
  %30 = load ptr, ptr %29, align 8, !tbaa !16
  %31 = getelementptr inbounds nuw %class.Jipopt, ptr %15, i32 0, i32 2
  %32 = load ptr, ptr %31, align 8, !tbaa !24
  %33 = getelementptr inbounds nuw %class.Jipopt, ptr %15, i32 0, i32 22
  %34 = load ptr, ptr %33, align 8, !tbaa !45
  %35 = load i32, ptr %8, align 4, !tbaa !12
  %36 = getelementptr inbounds nuw %class.Jipopt, ptr %15, i32 0, i32 11
  %37 = load ptr, ptr %36, align 8, !tbaa !33
  %38 = load i8, ptr %12, align 1, !tbaa !105
  %39 = zext i8 %38 to i32
  %40 = getelementptr inbounds nuw %class.Jipopt, ptr %15, i32 0, i32 12
  %41 = load ptr, ptr %40, align 8, !tbaa !34
  %42 = call noundef zeroext i8 (ptr, ptr, ptr, ...) @_ZN7JNIEnv_17CallBooleanMethodEP8_jobjectP10_jmethodIDz(ptr noundef nonnull align 8 dereferenceable(8) %30, ptr noundef %32, ptr noundef %34, i32 noundef %35, ptr noundef %37, i32 noundef %39, ptr noundef %41)
  %43 = icmp ne i8 %42, 0
  br i1 %43, label %45, label %44

44:                                               ; preds = %25
  store i1 false, ptr %6, align 1
  store i32 1, ptr %13, align 4
  br label %51

45:                                               ; preds = %25
  %46 = getelementptr inbounds nuw %class.Jipopt, ptr %15, i32 0, i32 1
  %47 = load ptr, ptr %46, align 8, !tbaa !16
  %48 = getelementptr inbounds nuw %class.Jipopt, ptr %15, i32 0, i32 12
  %49 = load ptr, ptr %48, align 8, !tbaa !34
  %50 = load ptr, ptr %11, align 8, !tbaa !99
  call void @_ZN7JNIEnv_20GetDoubleArrayRegionEP13_jdoubleArrayiiPd(ptr noundef nonnull align 8 dereferenceable(8) %47, ptr noundef %49, i32 noundef 0, i32 noundef 1, ptr noundef %50)
  store i1 true, ptr %6, align 1
  store i32 1, ptr %13, align 4
  br label %51

51:                                               ; preds = %45, %44
  call void @llvm.lifetime.end.p0(i64 1, ptr %12) #3
  %52 = load i1, ptr %6, align 1
  ret i1 %52
}